target datalayout = "e-m:e-p270:32:32-p271:32:32-p272:64:64-i64:64-i128:128-f80:128-n8:16:32:64-S128"
target triple = "x86_64-pc-linux-gnu"

@.str = private unnamed_addr constant [36 x i8] c"../openssl/crypto/pkcs7/pk7_smime.c\00", align 1
@__func__.PKCS7_sign_ex = private unnamed_addr constant [14 x i8] c"PKCS7_sign_ex\00", align 1

; Function Attrs: inlinehint nounwind uwtable
define internal ptr @ossl_check_const_X509_sk_type(ptr noundef %0) #3 {
  %2 = alloca ptr, align 8
  store ptr %0, ptr %2, align 8, !tbaa !10
  %3 = load ptr, ptr %2, align 8, !tbaa !10
  ret ptr %3
}

; Function Attrs: nounwind uwtable
define ptr @PKCS7_sign_ex(ptr noundef %0, ptr noundef %1, ptr noundef %2, ptr noundef %3, i32 noundef %4, ptr noundef %5, ptr noundef %6) #0 {
  %8 = alloca ptr, align 8
  %9 = alloca ptr, align 8
  %10 = alloca ptr, align 8
  %11 = alloca ptr, align 8
  %12 = alloca ptr, align 8
  %13 = alloca i32, align 4
  %14 = alloca ptr, align 8
  %15 = alloca ptr, align 8
  %16 = alloca ptr, align 8
  %17 = alloca i32, align 4
  %18 = alloca i32, align 4
  store ptr %0, ptr %9, align 8, !tbaa !3
  store ptr %1, ptr %10, align 8, !tbaa !8
  store ptr %2, ptr %11, align 8, !tbaa !10
  store ptr %3, ptr %12, align 8, !tbaa !12
  store i32 %4, ptr %13, align 4, !tbaa !14
  store ptr %5, ptr %14, align 8, !tbaa !16
  store ptr %6, ptr %15, align 8, !tbaa !18
  call void @llvm.lifetime.start.p0(i64 8, ptr %16) #4
  call void @llvm.lifetime.start.p0(i64 4, ptr %17) #4
  %19 = load ptr, ptr %14, align 8, !tbaa !16
  %20 = load ptr, ptr %15, align 8, !tbaa !18
  %21 = call ptr @PKCS7_new_ex(ptr noundef %19, ptr noundef %20)
  store ptr %21, ptr %16, align 8, !tbaa !20
  %22 = icmp eq ptr %21, null
  br i1 %22, label %23, label %24

23:                                               ; preds = %7
  call void @ERR_new()
  call void @ERR_set_debug(ptr noundef @.str, i32 noundef 32, ptr noundef @__func__.PKCS7_sign_ex)
  call void (i32, i32, ptr, ...) @ERR_set_error(i32 noundef 33, i32 noundef 524321, ptr noundef null)
  store ptr null, ptr %8, align 8
  store i32 1, ptr %18, align 4
  br label %94

24:                                               ; preds = %7
  %25 = load ptr, ptr %16, align 8, !tbaa !20
  %26 = call i32 @PKCS7_set_type(ptr noundef %25, i32 noundef 22)
  %27 = icmp ne i32 %26, 0
  br i1 %27, label %29, label %28

28:                                               ; preds = %24
  br label %92

29:                                               ; preds = %24
  %30 = load ptr, ptr %16, align 8, !tbaa !20
  %31 = call i32 @PKCS7_content_new(ptr noundef %30, i32 noundef 21)
  %32 = icmp ne i32 %31, 0
  br i1 %32, label %34, label %33

33:                                               ; preds = %29
  br label %92

34:                                               ; preds = %29
  %35 = load ptr, ptr %10, align 8, !tbaa !8
  %36 = icmp ne ptr %35, null
  br i1 %36, label %37, label %45

37:                                               ; preds = %34
  %38 = load ptr, ptr %16, align 8, !tbaa !20
  %39 = load ptr, ptr %9, align 8, !tbaa !3
  %40 = load ptr, ptr %10, align 8, !tbaa !8
  %41 = load i32, ptr %13, align 4, !tbaa !14
  %42 = call ptr @PKCS7_sign_add_signer(ptr noundef %38, ptr noundef %39, ptr noundef %40, ptr noundef null, i32 noundef %41)
  %43 = icmp ne ptr %42, null
  br i1 %43, label %45, label %44

44:                                               ; preds = %37
  call void @ERR_new()
  call void @ERR_set_debug(ptr noundef @.str, i32 noundef 43, ptr noundef @__func__.PKCS7_sign_ex)
  call void (i32, i32, ptr, ...) @ERR_set_error(i32 noundef 33, i32 noundef 153, ptr noundef null)
  br label %92

45:                                               ; preds = %37, %34
  %46 = load i32, ptr %13, align 4, !tbaa !14
  %47 = and i32 %46, 2
  %48 = icmp ne i32 %47, 0
  br i1 %48, label %70, label %49

49:                                               ; preds = %45
  store i32 0, ptr %17, align 4, !tbaa !14
  br label %50

50:                                               ; preds = %66, %49
  %51 = load i32, ptr %17, align 4, !tbaa !14
  %52 = load ptr, ptr %11, align 8, !tbaa !10
  %53 = call ptr @ossl_check_const_X509_sk_type(ptr noundef %52)
  %54 = call i32 @OPENSSL_sk_num(ptr noundef %53)
  %55 = icmp slt i32 %51, %54
  br i1 %55, label %56, label %69

56:                                               ; preds = %50
  %57 = load ptr, ptr %16, align 8, !tbaa !20
  %58 = load ptr, ptr %11, align 8, !tbaa !10
  %59 = call ptr @ossl_check_const_X509_sk_type(ptr noundef %58)
  %60 = load i32, ptr %17, align 4, !tbaa !14
  %61 = call ptr @OPENSSL_sk_value(ptr noundef %59, i32 noundef %60)
  %62 = call i32 @PKCS7_add_certificate(ptr noundef %57, ptr noundef %61)
  %63 = icmp ne i32 %62, 0
  br i1 %63, label %65, label %64

64:                                               ; preds = %56
  br label %92

65:                                               ; preds = %56
  br label %66

66:                                               ; preds = %65
  %67 = load i32, ptr %17, align 4, !tbaa !14
  %68 = add nsw i32 %67, 1
  store i32 %68, ptr %17, align 4, !tbaa !14
  br label %50, !llvm.loop !22

69:                                               ; preds = %50
  br label %70

70:                                               ; preds = %69, %45
  %71 = load i32, ptr %13, align 4, !tbaa !14
  %72 = and i32 %71, 64
  %73 = icmp ne i32 %72, 0
  br i1 %73, label %74, label %77

74:                                               ; preds = %70
  %75 = load ptr, ptr %16, align 8, !tbaa !20
  %76 = call i64 @PKCS7_ctrl(ptr noundef %75, i32 noundef 1, i64 noundef 1, ptr noundef null)
  br label %77

77:                                               ; preds = %74, %70
  %78 = load i32, ptr %13, align 4, !tbaa !14
  %79 = and i32 %78, 20480
  %80 = icmp ne i32 %79, 0
  br i1 %80, label %81, label %83

81:                                               ; preds = %77
  %82 = load ptr, ptr %16, align 8, !tbaa !20
  store ptr %82, ptr %8, align 8
  store i32 1, ptr %18, align 4
  br label %94

83:                                               ; preds = %77
  %84 = load ptr, ptr %16, align 8, !tbaa !20
  %85 = load ptr, ptr %12, align 8, !tbaa !12
  %86 = load i32, ptr %13, align 4, !tbaa !14
  %87 = call i32 @PKCS7_final(ptr noundef %84, ptr noundef %85, i32 noundef %86)
  %88 = icmp ne i32 %87, 0
  br i1 %88, label %89, label %91

89:                                               ; preds = %83
  %90 = load ptr, ptr %16, align 8, !tbaa !20
  store ptr %90, ptr %8, align 8
  store i32 1, ptr %18, align 4
  br label %94

91:                                               ; preds = %83
  br label %92

92:                                               ; preds = %91, %64, %44, %33, %28
  %93 = load ptr, ptr %16, align 8, !tbaa !20
  call void @PKCS7_free(ptr noundef %93)
  store ptr null, ptr %8, align 8
  store i32 1, ptr %18, align 4
  br label %94

94:                                               ; preds = %92, %89, %81, %23
  call void @llvm.lifetime.end.p0(i64 4, ptr %17) #4
  call void @llvm.lifetime.end.p0(i64 8, ptr %16) #4
  %95 = load ptr, ptr %8, align 8
  ret ptr %95
}