; Function Attrs: nounwind uwtable
define ptr @PKCS7_sign_ex(ptr noundef %0, ptr noundef %1, ptr noundef %2, ptr noundef %3, i32 noundef %4, ptr noundef %5, ptr noundef %6) local_unnamed_addr #0 {
  %8 = tail call ptr @PKCS7_new_ex(ptr noundef %5, ptr noundef %6) #3
  %9 = icmp eq ptr %8, null
  br i1 %9, label %10, label %11

10:                                               ; preds = %7
  tail call void @ERR_new() #3
  tail call void @ERR_set_debug(ptr noundef nonnull @.str, i32 noundef 32, ptr noundef nonnull @__func__.PKCS7_sign_ex) #3
  tail call void (i32, i32, ptr, ...) @ERR_set_error(i32 noundef 33, i32 noundef 524321, ptr noundef null) #3
  br label %36

11:                                               ; preds = %7
  %12 = tail call i32 @PKCS7_set_type(ptr noundef nonnull %8, i32 noundef 22) #3
  %.not = icmp eq i32 %12, 0
  br i1 %.not, label %.loopexit36, label %13

13:                                               ; preds = %11
  %14 = tail call i32 @PKCS7_content_new(ptr noundef nonnull %8, i32 noundef 21) #3
  %.not28 = icmp eq i32 %14, 0
  br i1 %.not28, label %.loopexit36, label %15

15:                                               ; preds = %13
  %.not29 = icmp eq ptr %1, null
  br i1 %.not29, label %19, label %16

16:                                               ; preds = %15
  %17 = tail call ptr @PKCS7_sign_add_signer(ptr noundef nonnull %8, ptr noundef %0, ptr noundef nonnull %1, ptr noundef null, i32 noundef %4)
  %.not30 = icmp eq ptr %17, null
  br i1 %.not30, label %18, label %19

18:                                               ; preds = %16
  tail call void @ERR_new() #3
  tail call void @ERR_set_debug(ptr noundef nonnull @.str, i32 noundef 43, ptr noundef nonnull @__func__.PKCS7_sign_ex) #3
  tail call void (i32, i32, ptr, ...) @ERR_set_error(i32 noundef 33, i32 noundef 153, ptr noundef null) #3
  br label %.loopexit36

19:                                               ; preds = %16, %15
  %20 = and i32 %4, 2
  %.not31 = icmp eq i32 %20, 0
  br i1 %.not31, label %.preheader, label %.loopexit

.preheader:                                       ; preds = %19
  %21 = tail call i32 @OPENSSL_sk_num(ptr noundef %2) #3
  %22 = icmp sgt i32 %21, 0
  br i1 %22, label %.lr.ph, label %.loopexit

23:                                               ; preds = %.lr.ph
  %24 = add nuw nsw i32 %.037, 1
  %25 = tail call i32 @OPENSSL_sk_num(ptr noundef %2) #3
  %26 = icmp slt i32 %24, %25
  br i1 %26, label %.lr.ph, label %.loopexit, !llvm.loop !3

.lr.ph:                                           ; preds = %.preheader, %23
  %.037 = phi i32 [ %24, %23 ], [ 0, %.preheader ]
  %27 = tail call ptr @OPENSSL_sk_value(ptr noundef %2, i32 noundef %.037) #3
  %28 = tail call i32 @PKCS7_add_certificate(ptr noundef nonnull %8, ptr noundef %27) #3
  %.not32 = icmp eq i32 %28, 0
  br i1 %.not32, label %.loopexit36, label %23

.loopexit:                                        ; preds = %23, %.preheader, %19
  %29 = and i32 %4, 64
  %.not33 = icmp eq i32 %29, 0
  br i1 %.not33, label %32, label %30

30:                                               ; preds = %.loopexit
  %31 = tail call i64 @PKCS7_ctrl(ptr noundef nonnull %8, i32 noundef 1, i64 noundef 1, ptr noundef null) #3
  br label %32

32:                                               ; preds = %30, %.loopexit
  %33 = and i32 %4, 20480
  %.not34 = icmp eq i32 %33, 0
  br i1 %.not34, label %34, label %36

34:                                               ; preds = %32
  %35 = tail call i32 @PKCS7_final(ptr noundef nonnull %8, ptr noundef %3, i32 noundef %4)
  %.not35 = icmp eq i32 %35, 0
  br i1 %.not35, label %.loopexit36, label %36

.loopexit36:                                      ; preds = %.lr.ph, %34, %13, %11, %18
  tail call void @PKCS7_free(ptr noundef nonnull %8) #3
  br label %36

36:                                               ; preds = %34, %32, %.loopexit36, %10
  %.025 = phi ptr [ null, %10 ], [ null, %.loopexit36 ], [ %8, %32 ], [ %8, %34 ]
  ret ptr %.025
}